; Function Attrs: null_pointer_is_valid sspstrong uwtable
define hidden void @cf_redissect_packets(ptr noundef %0) local_unnamed_addr #1 {
  %2 = getelementptr inbounds nuw i8, ptr %0, i64 161
  %3 = load i8, ptr %2, align 1, !range !9, !noundef !10
  %4 = trunc nuw i8 %3 to i1
  br i1 %4, label %.thread, label %5

5:                                                ; preds = %1
  %6 = getelementptr inbounds nuw i8, ptr %0, i64 164
  %7 = load i32, ptr %6, align 4
  switch i32 %7, label %13 [
    i32 1, label %.thread
    i32 0, label %9
  ]

.thread:                                          ; preds = %5, %1
  %8 = getelementptr inbounds nuw i8, ptr %0, i64 164
  store i32 2, ptr %8, align 4
  br label %13

9:                                                ; preds = %5
  %10 = getelementptr inbounds nuw i8, ptr %0, i64 8
  %11 = load i32, ptr %10, align 8
  %.not6 = icmp eq i32 %11, 0
  br i1 %.not6, label %13, label %12

12:                                               ; preds = %9
  tail call fastcc void @rescan_packets(ptr noundef %0, ptr noundef nonnull @.str.20, ptr noundef nonnull @.str.21, i1 noundef zeroext true)
  br label %13

13:                                               ; preds = %5, %.thread, %12, %9
  ret void
}